target datalayout = "e-m:e-p270:32:32-p271:32:32-p272:64:64-i64:64-i128:128-f80:128-n8:16:32:64-S128"
target triple = "x86_64-pc-linux-gnu"

%struct.mock_srv_ctx = type { ptr, ptr, ptr, ptr, ptr, ptr, ptr, ptr, ptr, ptr, i32, ptr, i32, i32, i32 }

@.str = private unnamed_addr constant [35 x i8] c"../openssl/apps/lib/cmp_mock_srv.c\00", align 1
@__func__.process_pollReq = private unnamed_addr constant [16 x i8] c"process_pollReq\00", align 1

; Function Attrs: nounwind uwtable
define internal i32 @process_pollReq(ptr noundef %0, ptr noundef %1, i32 noundef %2, ptr noundef %3, ptr noundef %4) #0 {
  %6 = alloca i32, align 4
  %7 = alloca ptr, align 8
  %8 = alloca ptr, align 8
  %9 = alloca i32, align 4
  %10 = alloca ptr, align 8
  %11 = alloca ptr, align 8
  %12 = alloca ptr, align 8
  %13 = alloca i32, align 4
  store ptr %0, ptr %7, align 8, !tbaa !4
  store ptr %1, ptr %8, align 8, !tbaa !41
  store i32 %2, ptr %9, align 4, !tbaa !31
  store ptr %3, ptr %10, align 8, !tbaa !73
  store ptr %4, ptr %11, align 8, !tbaa !75
  call void @llvm.lifetime.start.p0(i64 8, ptr %12) #5
  %14 = load ptr, ptr %7, align 8, !tbaa !4
  %15 = call ptr @OSSL_CMP_SRV_CTX_get0_custom_ctx(ptr noundef %14)
  store ptr %15, ptr %12, align 8, !tbaa !11
  %16 = load ptr, ptr %10, align 8, !tbaa !73
  %17 = icmp ne ptr %16, null
  br i1 %17, label %18, label %20

18:                                               ; preds = %5
  %19 = load ptr, ptr %10, align 8, !tbaa !73
  store ptr null, ptr %19, align 8, !tbaa !41
  br label %20

20:                                               ; preds = %18, %5
  %21 = load ptr, ptr %12, align 8, !tbaa !11
  %22 = icmp eq ptr %21, null
  br i1 %22, label %32, label %23

23:                                               ; preds = %20
  %24 = load ptr, ptr %8, align 8, !tbaa !41
  %25 = icmp eq ptr %24, null
  br i1 %25, label %32, label %26

26:                                               ; preds = %23
  %27 = load ptr, ptr %10, align 8, !tbaa !73
  %28 = icmp eq ptr %27, null
  br i1 %28, label %32, label %29

29:                                               ; preds = %26
  %30 = load ptr, ptr %11, align 8, !tbaa !75
  %31 = icmp eq ptr %30, null
  br i1 %31, label %32, label %33

32:                                               ; preds = %29, %26, %23, %20
  call void @ERR_new()
  call void @ERR_set_debug(ptr noundef @.str, i32 noundef 697, ptr noundef @__func__.process_pollReq)
  call void (i32, i32, ptr, ...) @ERR_set_error(i32 noundef 58, i32 noundef 103, ptr noundef null)
  store i32 0, ptr %6, align 4
  store i32 1, ptr %13, align 4
  br label %76

33:                                               ; preds = %29
  %34 = load ptr, ptr %12, align 8, !tbaa !11
  %35 = getelementptr inbounds nuw %struct.mock_srv_ctx, ptr %34, i32 0, i32 10
  %36 = load i32, ptr %35, align 8, !tbaa !36
  %37 = icmp eq i32 %36, 1
  br i1 %37, label %45, label %38

38:                                               ; preds = %33
  %39 = load ptr, ptr %12, align 8, !tbaa !11
  %40 = getelementptr inbounds nuw %struct.mock_srv_ctx, ptr %39, i32 0, i32 10
  %41 = load i32, ptr %40, align 8, !tbaa !36
  %42 = load ptr, ptr %8, align 8, !tbaa !41
  %43 = call i32 @OSSL_CMP_MSG_get_bodytype(ptr noundef %42)
  %44 = icmp eq i32 %41, %43
  br i1 %44, label %45, label %46

45:                                               ; preds = %38, %33
  call void @ERR_new()
  call void @ERR_set_debug(ptr noundef @.str, i32 noundef 703, ptr noundef @__func__.process_pollReq)
  call void (i32, i32, ptr, ...) @ERR_set_error(i32 noundef 58, i32 noundef 158, ptr noundef null)
  store i32 0, ptr %6, align 4
  store i32 1, ptr %13, align 4
  br label %76

46:                                               ; preds = %38
  %47 = load ptr, ptr %12, align 8, !tbaa !11
  %48 = getelementptr inbounds nuw %struct.mock_srv_ctx, ptr %47, i32 0, i32 11
  %49 = load ptr, ptr %48, align 8, !tbaa !51
  %50 = icmp eq ptr %49, null
  br i1 %50, label %51, label %52

51:                                               ; preds = %46
  call void @ERR_new()
  call void @ERR_set_debug(ptr noundef @.str, i32 noundef 707, ptr noundef @__func__.process_pollReq)
  call void (i32, i32, ptr, ...) @ERR_set_error(i32 noundef 58, i32 noundef 105, ptr noundef null)
  store i32 0, ptr %6, align 4
  store i32 1, ptr %13, align 4
  br label %76

52:                                               ; preds = %46
  %53 = load ptr, ptr %12, align 8, !tbaa !11
  %54 = getelementptr inbounds nuw %struct.mock_srv_ctx, ptr %53, i32 0, i32 13
  %55 = load i32, ptr %54, align 4, !tbaa !50
  %56 = add nsw i32 %55, 1
  store i32 %56, ptr %54, align 4, !tbaa !50
  %57 = load ptr, ptr %12, align 8, !tbaa !11
  %58 = getelementptr inbounds nuw %struct.mock_srv_ctx, ptr %57, i32 0, i32 12
  %59 = load i32, ptr %58, align 8, !tbaa !37
  %60 = icmp sge i32 %56, %59
  br i1 %60, label %61, label %69

61:                                               ; preds = %52
  %62 = load ptr, ptr %12, align 8, !tbaa !11
  %63 = getelementptr inbounds nuw %struct.mock_srv_ctx, ptr %62, i32 0, i32 11
  %64 = load ptr, ptr %63, align 8, !tbaa !51
  %65 = load ptr, ptr %10, align 8, !tbaa !73
  store ptr %64, ptr %65, align 8, !tbaa !41
  %66 = load ptr, ptr %12, align 8, !tbaa !11
  %67 = getelementptr inbounds nuw %struct.mock_srv_ctx, ptr %66, i32 0, i32 11
  store ptr null, ptr %67, align 8, !tbaa !51
  %68 = load ptr, ptr %11, align 8, !tbaa !75
  store i64 0, ptr %68, align 8, !tbaa !77
  br label %75

69:                                               ; preds = %52
  %70 = load ptr, ptr %12, align 8, !tbaa !11
  %71 = getelementptr inbounds nuw %struct.mock_srv_ctx, ptr %70, i32 0, i32 14
  %72 = load i32, ptr %71, align 8, !tbaa !38
  %73 = sext i32 %72 to i64
  %74 = load ptr, ptr %11, align 8, !tbaa !75
  store i64 %73, ptr %74, align 8, !tbaa !77
  br label %75

75:                                               ; preds = %69, %61
  store i32 1, ptr %6, align 4
  store i32 1, ptr %13, align 4
  br label %76

76:                                               ; preds = %75, %51, %45, %32
  call void @llvm.lifetime.end.p0(i64 8, ptr %12) #5
  %77 = load i32, ptr %6, align 4
  ret i32 %77
}