; Function Attrs: nounwind uwtable
define internal range(i32 0, 2) i32 @process_pollReq(ptr noundef %0, ptr noundef %1, i32 %2, ptr noundef writeonly captures(address_is_null) %3, ptr noundef writeonly captures(address_is_null) %4) #0 {
  %6 = tail call ptr @OSSL_CMP_SRV_CTX_get0_custom_ctx(ptr noundef %0) #4
  %.not = icmp eq ptr %3, null
  br i1 %.not, label %.thread, label %7

7:                                                ; preds = %5
  store ptr null, ptr %3, align 8, !tbaa !41
  %8 = icmp eq ptr %6, null
  %9 = icmp eq ptr %1, null
  %or.cond = or i1 %9, %8
  %10 = icmp eq ptr %4, null
  %or.cond5 = or i1 %10, %or.cond
  br i1 %or.cond5, label %.thread, label %11

.thread:                                          ; preds = %5, %7
  tail call void @ERR_new() #4
  tail call void @ERR_set_debug(ptr noundef nonnull @.str, i32 noundef 697, ptr noundef nonnull @__func__.process_pollReq) #4
  tail call void (i32, i32, ptr, ...) @ERR_set_error(i32 noundef 58, i32 noundef 103, ptr noundef null) #4
  br label %36

11:                                               ; preds = %7
  %12 = getelementptr inbounds nuw i8, ptr %6, i64 80
  %13 = load i32, ptr %12, align 8, !tbaa !25
  %14 = icmp eq i32 %13, 1
  br i1 %14, label %18, label %15

15:                                               ; preds = %11
  %16 = tail call i32 @OSSL_CMP_MSG_get_bodytype(ptr noundef nonnull %1) #4
  %17 = icmp eq i32 %13, %16
  br i1 %17, label %18, label %19

18:                                               ; preds = %15, %11
  tail call void @ERR_new() #4
  tail call void @ERR_set_debug(ptr noundef nonnull @.str, i32 noundef 703, ptr noundef nonnull @__func__.process_pollReq) #4
  tail call void (i32, i32, ptr, ...) @ERR_set_error(i32 noundef 58, i32 noundef 158, ptr noundef null) #4
  br label %36

19:                                               ; preds = %15
  %20 = getelementptr inbounds nuw i8, ptr %6, i64 88
  %21 = load ptr, ptr %20, align 8, !tbaa !28
  %22 = icmp eq ptr %21, null
  br i1 %22, label %23, label %24

23:                                               ; preds = %19
  tail call void @ERR_new() #4
  tail call void @ERR_set_debug(ptr noundef nonnull @.str, i32 noundef 707, ptr noundef nonnull @__func__.process_pollReq) #4
  tail call void (i32, i32, ptr, ...) @ERR_set_error(i32 noundef 58, i32 noundef 105, ptr noundef null) #4
  br label %36

24:                                               ; preds = %19
  %25 = getelementptr inbounds nuw i8, ptr %6, i64 100
  %26 = load i32, ptr %25, align 4, !tbaa !31
  %27 = add nsw i32 %26, 1
  store i32 %27, ptr %25, align 4, !tbaa !31
  %28 = getelementptr inbounds nuw i8, ptr %6, i64 96
  %29 = load i32, ptr %28, align 8, !tbaa !26
  %.not29 = icmp slt i32 %27, %29
  br i1 %.not29, label %31, label %30

30:                                               ; preds = %24
  store ptr %21, ptr %3, align 8, !tbaa !41
  store ptr null, ptr %20, align 8, !tbaa !28
  br label %35

31:                                               ; preds = %24
  %32 = getelementptr inbounds nuw i8, ptr %6, i64 104
  %33 = load i32, ptr %32, align 8, !tbaa !27
  %34 = sext i32 %33 to i64
  br label %35

35:                                               ; preds = %31, %30
  %storemerge = phi i64 [ %34, %31 ], [ 0, %30 ]
  store i64 %storemerge, ptr %4, align 8, !tbaa !42
  br label %36

36:                                               ; preds = %35, %23, %18, %.thread
  %.0 = phi i32 [ 0, %.thread ], [ 0, %18 ], [ 0, %23 ], [ 1, %35 ]
  ret i32 %.0
}